target datalayout = "e-m:e-p270:32:32-p271:32:32-p272:64:64-i64:64-i128:128-f80:128-n8:16:32:64-S128"
target triple = "x86_64-pc-linux-gnu"

@proto_register_hip.ett = internal global [6 x ptr] [ptr @ett_hip, ptr @ett_hip_controls, ptr @ett_hip_tlv, ptr @ett_hip_tlv_data, ptr @ett_hip_tlv_host_id_hdr, ptr @ett_hip_locator_data], align 16
@.str.189 = private unnamed_addr constant [23 x i8] c"Host Identity Protocol\00", align 1
@.str.190 = private unnamed_addr constant [4 x i8] c"HIP\00", align 1
@.str.191 = private unnamed_addr constant [4 x i8] c"hip\00", align 1
@proto_hip = internal global i32 0, align 4
@hip_ip_handle = internal global ptr null, align 8
@.str.192 = private unnamed_addr constant [8 x i8] c"hip_udp\00", align 1
@hip_udp_handle = internal global ptr null, align 8

; Function Attrs: null_pointer_is_valid sspstrong uwtable
define hidden void @proto_register_hip() #0 {
  %1 = alloca ptr, align 8
  call void @llvm.lifetime.start.p0(i64 8, ptr %1) #4
  %2 = call i32 @proto_register_protocol(ptr noundef @.str.189, ptr noundef @.str.190, ptr noundef @.str.191)
  store i32 %2, ptr @proto_hip, align 4
  %3 = load i32, ptr @proto_hip, align 4
  %4 = call ptr @register_dissector(ptr noundef @.str.191, ptr noundef @dissect_hip, i32 noundef %3)
  store ptr %4, ptr @hip_ip_handle, align 8
  %5 = load i32, ptr @proto_hip, align 4
  %6 = call ptr @register_dissector(ptr noundef @.str.192, ptr noundef @dissect_hip_in_udp, i32 noundef %5)
  store ptr %6, ptr @hip_udp_handle, align 8
  %7 = load i32, ptr @proto_hip, align 4
  call void @proto_register_field_array(i32 noundef %7, ptr noundef @proto_register_hip.hf, i32 noundef 100)
  call void @proto_register_subtree_array(ptr noundef @proto_register_hip.ett, i32 noundef 6)
  %8 = load i32, ptr @proto_hip, align 4
  %9 = call ptr @expert_register_protocol(i32 noundef %8)
  store ptr %9, ptr %1, align 8
  %10 = load ptr, ptr %1, align 8
  call void @expert_register_field_array(ptr noundef %10, ptr noundef @proto_register_hip.ei, i32 noundef 3)
  call void @llvm.lifetime.end.p0(i64 8, ptr %1) #4
  ret void
}